target datalayout = "e-m:e-p270:32:32-p271:32:32-p272:64:64-i64:64-i128:128-f80:128-n8:16:32:64-S128"
target triple = "x86_64-pc-linux-gnu"

%struct.ARKodeARKStepMemRec = type { ptr, ptr, i32, i32, i32, i32, i32, i32, ptr, ptr, ptr, ptr, ptr, ptr, i32, i32, i32, i32, ptr, ptr, ptr, ptr, i32, ptr, double, double, double, double, i32, double, double, double, double, double, double, i32, i64, i32, i32, i32, ptr, ptr, ptr, ptr, ptr, ptr, i32, ptr, ptr, ptr, ptr, ptr, ptr, i32, i32, i64, i64, i64, i64, i64, ptr, ptr, i32, i32, i32, double, double, ptr, i32, ptr, ptr }

@.str = private unnamed_addr constant [127 x i8] c"generated/home/dtcxzyw/WorkSpace/Projects/compilers/llvm-opt-benchmark/bench/sundials/sundials/src/arkode/arkode_arkstep_nls.c\00", align 1
@__func__.arkStep_SetNlsSysFn = private unnamed_addr constant [20 x i8] c"arkStep_SetNlsSysFn\00", align 1
@.str.6 = private unnamed_addr constant [25 x i8] c"Invalid mass matrix type\00", align 1
@.str.7 = private unnamed_addr constant [30 x i8] c"Invalid nonlinear solver type\00", align 1
@.str.8 = private unnamed_addr constant [41 x i8] c"Setting nonlinear system function failed\00", align 1

; Function Attrs: nounwind uwtable
define i32 @arkStep_SetNlsSysFn(ptr noundef %0) #0 {
  %2 = alloca i32, align 4
  %3 = alloca ptr, align 8
  %4 = alloca ptr, align 8
  %5 = alloca i32, align 4
  %6 = alloca i32, align 4
  store ptr %0, ptr %3, align 8, !tbaa !3
  call void @llvm.lifetime.start.p0(i64 8, ptr %4) #4
  call void @llvm.lifetime.start.p0(i64 4, ptr %5) #4
  %7 = load ptr, ptr %3, align 8, !tbaa !3
  %8 = call i32 @arkStep_AccessStepMem(ptr noundef %7, ptr noundef @__func__.arkStep_SetNlsSysFn, ptr noundef %4)
  store i32 %8, ptr %5, align 4, !tbaa !10
  %9 = load i32, ptr %5, align 4, !tbaa !10
  %10 = icmp ne i32 %9, 0
  br i1 %10, label %11, label %13

11:                                               ; preds = %1
  %12 = load i32, ptr %5, align 4, !tbaa !10
  store i32 %12, ptr %2, align 4
  store i32 1, ptr %6, align 4
  br label %168

13:                                               ; preds = %1
  %14 = load ptr, ptr %4, align 8, !tbaa !20
  %15 = getelementptr inbounds nuw %struct.ARKodeARKStepMemRec, ptr %14, i32 0, i32 21
  %16 = load ptr, ptr %15, align 8, !tbaa !22
  %17 = call i32 @SUNNonlinSolGetType(ptr noundef %16)
  %18 = icmp eq i32 %17, 0
  br i1 %18, label %19, label %86

19:                                               ; preds = %13
  %20 = load ptr, ptr %4, align 8, !tbaa !20
  %21 = getelementptr inbounds nuw %struct.ARKodeARKStepMemRec, ptr %20, i32 0, i32 53
  %22 = load i32, ptr %21, align 8, !tbaa !42
  %23 = icmp eq i32 %22, 0
  br i1 %23, label %24, label %45

24:                                               ; preds = %19
  %25 = load ptr, ptr %4, align 8, !tbaa !20
  %26 = getelementptr inbounds nuw %struct.ARKodeARKStepMemRec, ptr %25, i32 0, i32 28
  %27 = load i32, ptr %26, align 8, !tbaa !43
  %28 = icmp eq i32 %27, 0
  br i1 %28, label %29, label %39

29:                                               ; preds = %24
  %30 = load ptr, ptr %4, align 8, !tbaa !20
  %31 = getelementptr inbounds nuw %struct.ARKodeARKStepMemRec, ptr %30, i32 0, i32 2
  %32 = load i32, ptr %31, align 8, !tbaa !44
  %33 = icmp ne i32 %32, 0
  br i1 %33, label %34, label %39

34:                                               ; preds = %29
  %35 = load ptr, ptr %4, align 8, !tbaa !20
  %36 = getelementptr inbounds nuw %struct.ARKodeARKStepMemRec, ptr %35, i32 0, i32 21
  %37 = load ptr, ptr %36, align 8, !tbaa !22
  %38 = call i32 @SUNNonlinSolSetSysFn(ptr noundef %37, ptr noundef @arkStep_NlsResidual_MassIdent_TrivialPredAutonomous)
  store i32 %38, ptr %5, align 4, !tbaa !10
  br label %44

39:                                               ; preds = %29, %24
  %40 = load ptr, ptr %4, align 8, !tbaa !20
  %41 = getelementptr inbounds nuw %struct.ARKodeARKStepMemRec, ptr %40, i32 0, i32 21
  %42 = load ptr, ptr %41, align 8, !tbaa !22
  %43 = call i32 @SUNNonlinSolSetSysFn(ptr noundef %42, ptr noundef @arkStep_NlsResidual_MassIdent)
  store i32 %43, ptr %5, align 4, !tbaa !10
  br label %44

44:                                               ; preds = %39, %34
  br label %85

45:                                               ; preds = %19
  %46 = load ptr, ptr %4, align 8, !tbaa !20
  %47 = getelementptr inbounds nuw %struct.ARKodeARKStepMemRec, ptr %46, i32 0, i32 53
  %48 = load i32, ptr %47, align 8, !tbaa !42
  %49 = icmp eq i32 %48, 1
  br i1 %49, label %50, label %71

50:                                               ; preds = %45
  %51 = load ptr, ptr %4, align 8, !tbaa !20
  %52 = getelementptr inbounds nuw %struct.ARKodeARKStepMemRec, ptr %51, i32 0, i32 28
  %53 = load i32, ptr %52, align 8, !tbaa !43
  %54 = icmp eq i32 %53, 0
  br i1 %54, label %55, label %65

55:                                               ; preds = %50
  %56 = load ptr, ptr %4, align 8, !tbaa !20
  %57 = getelementptr inbounds nuw %struct.ARKodeARKStepMemRec, ptr %56, i32 0, i32 2
  %58 = load i32, ptr %57, align 8, !tbaa !44
  %59 = icmp ne i32 %58, 0
  br i1 %59, label %60, label %65

60:                                               ; preds = %55
  %61 = load ptr, ptr %4, align 8, !tbaa !20
  %62 = getelementptr inbounds nuw %struct.ARKodeARKStepMemRec, ptr %61, i32 0, i32 21
  %63 = load ptr, ptr %62, align 8, !tbaa !22
  %64 = call i32 @SUNNonlinSolSetSysFn(ptr noundef %63, ptr noundef @arkStep_NlsResidual_MassFixed_TrivialPredAutonomous)
  store i32 %64, ptr %5, align 4, !tbaa !10
  br label %70

65:                                               ; preds = %55, %50
  %66 = load ptr, ptr %4, align 8, !tbaa !20
  %67 = getelementptr inbounds nuw %struct.ARKodeARKStepMemRec, ptr %66, i32 0, i32 21
  %68 = load ptr, ptr %67, align 8, !tbaa !22
  %69 = call i32 @SUNNonlinSolSetSysFn(ptr noundef %68, ptr noundef @arkStep_NlsResidual_MassFixed)
  store i32 %69, ptr %5, align 4, !tbaa !10
  br label %70

70:                                               ; preds = %65, %60
  br label %84

71:                                               ; preds = %45
  %72 = load ptr, ptr %4, align 8, !tbaa !20
  %73 = getelementptr inbounds nuw %struct.ARKodeARKStepMemRec, ptr %72, i32 0, i32 53
  %74 = load i32, ptr %73, align 8, !tbaa !42
  %75 = icmp eq i32 %74, 2
  br i1 %75, label %76, label %81

76:                                               ; preds = %71
  %77 = load ptr, ptr %4, align 8, !tbaa !20
  %78 = getelementptr inbounds nuw %struct.ARKodeARKStepMemRec, ptr %77, i32 0, i32 21
  %79 = load ptr, ptr %78, align 8, !tbaa !22
  %80 = call i32 @SUNNonlinSolSetSysFn(ptr noundef %79, ptr noundef @arkStep_NlsResidual_MassTDep)
  store i32 %80, ptr %5, align 4, !tbaa !10
  br label %83

81:                                               ; preds = %71
  %82 = load ptr, ptr %3, align 8, !tbaa !3
  call void (ptr, i32, i32, ptr, ptr, ptr, ...) @arkProcessError(ptr noundef %82, i32 noundef -22, i32 noundef 177, ptr noundef @__func__.arkStep_SetNlsSysFn, ptr noundef @.str, ptr noundef @.str.6)
  store i32 -22, ptr %2, align 4
  store i32 1, ptr %6, align 4
  br label %168

83:                                               ; preds = %76
  br label %84

84:                                               ; preds = %83, %70
  br label %85

85:                                               ; preds = %84, %44
  br label %162

86:                                               ; preds = %13
  %87 = load ptr, ptr %4, align 8, !tbaa !20
  %88 = getelementptr inbounds nuw %struct.ARKodeARKStepMemRec, ptr %87, i32 0, i32 21
  %89 = load ptr, ptr %88, align 8, !tbaa !22
  %90 = call i32 @SUNNonlinSolGetType(ptr noundef %89)
  %91 = icmp eq i32 %90, 1
  br i1 %91, label %92, label %159

92:                                               ; preds = %86
  %93 = load ptr, ptr %4, align 8, !tbaa !20
  %94 = getelementptr inbounds nuw %struct.ARKodeARKStepMemRec, ptr %93, i32 0, i32 53
  %95 = load i32, ptr %94, align 8, !tbaa !42
  %96 = icmp eq i32 %95, 0
  br i1 %96, label %97, label %118

97:                                               ; preds = %92
  %98 = load ptr, ptr %4, align 8, !tbaa !20
  %99 = getelementptr inbounds nuw %struct.ARKodeARKStepMemRec, ptr %98, i32 0, i32 28
  %100 = load i32, ptr %99, align 8, !tbaa !43
  %101 = icmp eq i32 %100, 0
  br i1 %101, label %102, label %112

102:                                              ; preds = %97
  %103 = load ptr, ptr %4, align 8, !tbaa !20
  %104 = getelementptr inbounds nuw %struct.ARKodeARKStepMemRec, ptr %103, i32 0, i32 2
  %105 = load i32, ptr %104, align 8, !tbaa !44
  %106 = icmp ne i32 %105, 0
  br i1 %106, label %107, label %112

107:                                              ; preds = %102
  %108 = load ptr, ptr %4, align 8, !tbaa !20
  %109 = getelementptr inbounds nuw %struct.ARKodeARKStepMemRec, ptr %108, i32 0, i32 21
  %110 = load ptr, ptr %109, align 8, !tbaa !22
  %111 = call i32 @SUNNonlinSolSetSysFn(ptr noundef %110, ptr noundef @arkStep_NlsFPFunction_MassIdent_TrivialPredAutonomous)
  store i32 %111, ptr %5, align 4, !tbaa !10
  br label %117

112:                                              ; preds = %102, %97
  %113 = load ptr, ptr %4, align 8, !tbaa !20
  %114 = getelementptr inbounds nuw %struct.ARKodeARKStepMemRec, ptr %113, i32 0, i32 21
  %115 = load ptr, ptr %114, align 8, !tbaa !22
  %116 = call i32 @SUNNonlinSolSetSysFn(ptr noundef %115, ptr noundef @arkStep_NlsFPFunction_MassIdent)
  store i32 %116, ptr %5, align 4, !tbaa !10
  br label %117

117:                                              ; preds = %112, %107
  br label %158

118:                                              ; preds = %92
  %119 = load ptr, ptr %4, align 8, !tbaa !20
  %120 = getelementptr inbounds nuw %struct.ARKodeARKStepMemRec, ptr %119, i32 0, i32 53
  %121 = load i32, ptr %120, align 8, !tbaa !42
  %122 = icmp eq i32 %121, 1
  br i1 %122, label %123, label %144

123:                                              ; preds = %118
  %124 = load ptr, ptr %4, align 8, !tbaa !20
  %125 = getelementptr inbounds nuw %struct.ARKodeARKStepMemRec, ptr %124, i32 0, i32 28
  %126 = load i32, ptr %125, align 8, !tbaa !43
  %127 = icmp eq i32 %126, 0
  br i1 %127, label %128, label %138

128:                                              ; preds = %123
  %129 = load ptr, ptr %4, align 8, !tbaa !20
  %130 = getelementptr inbounds nuw %struct.ARKodeARKStepMemRec, ptr %129, i32 0, i32 2
  %131 = load i32, ptr %130, align 8, !tbaa !44
  %132 = icmp ne i32 %131, 0
  br i1 %132, label %133, label %138

133:                                              ; preds = %128
  %134 = load ptr, ptr %4, align 8, !tbaa !20
  %135 = getelementptr inbounds nuw %struct.ARKodeARKStepMemRec, ptr %134, i32 0, i32 21
  %136 = load ptr, ptr %135, align 8, !tbaa !22
  %137 = call i32 @SUNNonlinSolSetSysFn(ptr noundef %136, ptr noundef @arkStep_NlsFPFunction_MassFixed_TrivialPredAutonomous)
  store i32 %137, ptr %5, align 4, !tbaa !10
  br label %143

138:                                              ; preds = %128, %123
  %139 = load ptr, ptr %4, align 8, !tbaa !20
  %140 = getelementptr inbounds nuw %struct.ARKodeARKStepMemRec, ptr %139, i32 0, i32 21
  %141 = load ptr, ptr %140, align 8, !tbaa !22
  %142 = call i32 @SUNNonlinSolSetSysFn(ptr noundef %141, ptr noundef @arkStep_NlsFPFunction_MassFixed)
  store i32 %142, ptr %5, align 4, !tbaa !10
  br label %143

143:                                              ; preds = %138, %133
  br label %157

144:                                              ; preds = %118
  %145 = load ptr, ptr %4, align 8, !tbaa !20
  %146 = getelementptr inbounds nuw %struct.ARKodeARKStepMemRec, ptr %145, i32 0, i32 53
  %147 = load i32, ptr %146, align 8, !tbaa !42
  %148 = icmp eq i32 %147, 2
  br i1 %148, label %149, label %154

149:                                              ; preds = %144
  %150 = load ptr, ptr %4, align 8, !tbaa !20
  %151 = getelementptr inbounds nuw %struct.ARKodeARKStepMemRec, ptr %150, i32 0, i32 21
  %152 = load ptr, ptr %151, align 8, !tbaa !22
  %153 = call i32 @SUNNonlinSolSetSysFn(ptr noundef %152, ptr noundef @arkStep_NlsFPFunction_MassTDep)
  store i32 %153, ptr %5, align 4, !tbaa !10
  br label %156

154:                                              ; preds = %144
  %155 = load ptr, ptr %3, align 8, !tbaa !3
  call void (ptr, i32, i32, ptr, ptr, ptr, ...) @arkProcessError(ptr noundef %155, i32 noundef -22, i32 noundef 219, ptr noundef @__func__.arkStep_SetNlsSysFn, ptr noundef @.str, ptr noundef @.str.6)
  store i32 -22, ptr %2, align 4
  store i32 1, ptr %6, align 4
  br label %168

156:                                              ; preds = %149
  br label %157

157:                                              ; preds = %156, %143
  br label %158

158:                                              ; preds = %157, %117
  br label %161

159:                                              ; preds = %86
  %160 = load ptr, ptr %3, align 8, !tbaa !3
  call void (ptr, i32, i32, ptr, ptr, ptr, ...) @arkProcessError(ptr noundef %160, i32 noundef -22, i32 noundef 226, ptr noundef @__func__.arkStep_SetNlsSysFn, ptr noundef @.str, ptr noundef @.str.7)
  store i32 -22, ptr %2, align 4
  store i32 1, ptr %6, align 4
  br label %168

161:                                              ; preds = %158
  br label %162

162:                                              ; preds = %161, %85
  %163 = load i32, ptr %5, align 4, !tbaa !10
  %164 = icmp ne i32 %163, 0
  br i1 %164, label %165, label %167

165:                                              ; preds = %162
  %166 = load ptr, ptr %3, align 8, !tbaa !3
  call void (ptr, i32, i32, ptr, ptr, ptr, ...) @arkProcessError(ptr noundef %166, i32 noundef -22, i32 noundef 233, ptr noundef @__func__.arkStep_SetNlsSysFn, ptr noundef @.str, ptr noundef @.str.8)
  store i32 -22, ptr %2, align 4
  store i32 1, ptr %6, align 4
  br label %168

167:                                              ; preds = %162
  store i32 0, ptr %2, align 4
  store i32 1, ptr %6, align 4
  br label %168

168:                                              ; preds = %167, %165, %159, %154, %81, %11
  call void @llvm.lifetime.end.p0(i64 4, ptr %5) #4
  call void @llvm.lifetime.end.p0(i64 8, ptr %4) #4
  %169 = load i32, ptr %2, align 4
  ret i32 %169
}