; Function Attrs: nounwind uwtable
define i32 @arkStep_SetNlsSysFn(ptr noundef %0) local_unnamed_addr #0 {
  %2 = alloca ptr, align 8
  call void @llvm.lifetime.start.p0(i64 8, ptr nonnull %2) #5
  %3 = call i32 @arkStep_AccessStepMem(ptr noundef %0, ptr noundef nonnull @__func__.arkStep_SetNlsSysFn, ptr noundef nonnull %2) #5
  %.not = icmp eq i32 %3, 0
  br i1 %.not, label %4, label %63

4:                                                ; preds = %1
  %5 = load ptr, ptr %2, align 8, !tbaa !14
  %6 = getelementptr inbounds nuw i8, ptr %5, i64 128
  %7 = load ptr, ptr %6, align 8, !tbaa !16
  %8 = call i32 @SUNNonlinSolGetType(ptr noundef %7) #5
  %9 = icmp eq i32 %8, 0
  %10 = load ptr, ptr %2, align 8, !tbaa !14
  br i1 %9, label %11, label %31

11:                                               ; preds = %4
  %12 = getelementptr inbounds nuw i8, ptr %10, i64 376
  %13 = load i32, ptr %12, align 8, !tbaa !36
  switch i32 %13, label %30 [
    i32 0, label %14
    i32 1, label %22
    i32 2, label %58
  ]

14:                                               ; preds = %11
  %15 = getelementptr inbounds nuw i8, ptr %10, i64 184
  %16 = load i32, ptr %15, align 8, !tbaa !37
  %17 = icmp eq i32 %16, 0
  br i1 %17, label %18, label %21

18:                                               ; preds = %14
  %19 = getelementptr inbounds nuw i8, ptr %10, i64 16
  %20 = load i32, ptr %19, align 8, !tbaa !38
  %.not15 = icmp eq i32 %20, 0
  br i1 %.not15, label %21, label %58

21:                                               ; preds = %18, %14
  br label %58

22:                                               ; preds = %11
  %23 = getelementptr inbounds nuw i8, ptr %10, i64 184
  %24 = load i32, ptr %23, align 8, !tbaa !37
  %25 = icmp eq i32 %24, 0
  br i1 %25, label %26, label %29

26:                                               ; preds = %22
  %27 = getelementptr inbounds nuw i8, ptr %10, i64 16
  %28 = load i32, ptr %27, align 8, !tbaa !38
  %.not14 = icmp eq i32 %28, 0
  br i1 %.not14, label %29, label %58

29:                                               ; preds = %26, %22
  br label %58

30:                                               ; preds = %11
  call void (ptr, i32, i32, ptr, ptr, ptr, ...) @arkProcessError(ptr noundef %0, i32 noundef -22, i32 noundef 177, ptr noundef nonnull @__func__.arkStep_SetNlsSysFn, ptr noundef nonnull @.str, ptr noundef nonnull @.str.6) #5
  br label %63

31:                                               ; preds = %4
  %32 = getelementptr inbounds nuw i8, ptr %10, i64 128
  %33 = load ptr, ptr %32, align 8, !tbaa !16
  %34 = call i32 @SUNNonlinSolGetType(ptr noundef %33) #5
  %35 = icmp eq i32 %34, 1
  br i1 %35, label %36, label %57

36:                                               ; preds = %31
  %37 = load ptr, ptr %2, align 8, !tbaa !14
  %38 = getelementptr inbounds nuw i8, ptr %37, i64 376
  %39 = load i32, ptr %38, align 8, !tbaa !36
  switch i32 %39, label %56 [
    i32 0, label %40
    i32 1, label %48
    i32 2, label %58
  ]

40:                                               ; preds = %36
  %41 = getelementptr inbounds nuw i8, ptr %37, i64 184
  %42 = load i32, ptr %41, align 8, !tbaa !37
  %43 = icmp eq i32 %42, 0
  br i1 %43, label %44, label %47

44:                                               ; preds = %40
  %45 = getelementptr inbounds nuw i8, ptr %37, i64 16
  %46 = load i32, ptr %45, align 8, !tbaa !38
  %.not13 = icmp eq i32 %46, 0
  br i1 %.not13, label %47, label %58

47:                                               ; preds = %44, %40
  br label %58

48:                                               ; preds = %36
  %49 = getelementptr inbounds nuw i8, ptr %37, i64 184
  %50 = load i32, ptr %49, align 8, !tbaa !37
  %51 = icmp eq i32 %50, 0
  br i1 %51, label %52, label %55

52:                                               ; preds = %48
  %53 = getelementptr inbounds nuw i8, ptr %37, i64 16
  %54 = load i32, ptr %53, align 8, !tbaa !38
  %.not12 = icmp eq i32 %54, 0
  br i1 %.not12, label %55, label %58

55:                                               ; preds = %52, %48
  br label %58

56:                                               ; preds = %36
  call void (ptr, i32, i32, ptr, ptr, ptr, ...) @arkProcessError(ptr noundef %0, i32 noundef -22, i32 noundef 219, ptr noundef nonnull @__func__.arkStep_SetNlsSysFn, ptr noundef nonnull @.str, ptr noundef nonnull @.str.6) #5
  br label %63

57:                                               ; preds = %31
  call void (ptr, i32, i32, ptr, ptr, ptr, ...) @arkProcessError(ptr noundef %0, i32 noundef -22, i32 noundef 226, ptr noundef nonnull @__func__.arkStep_SetNlsSysFn, ptr noundef nonnull @.str, ptr noundef nonnull @.str.7) #5
  br label %63

58:                                               ; preds = %36, %52, %44, %11, %26, %18, %55, %47, %21, %29
  %.sink = phi ptr [ %37, %55 ], [ %37, %47 ], [ %10, %21 ], [ %10, %29 ], [ %10, %18 ], [ %10, %26 ], [ %10, %11 ], [ %37, %44 ], [ %37, %52 ], [ %37, %36 ]
  %arkStep_NlsFPFunction_MassTDep.sink = phi ptr [ @arkStep_NlsFPFunction_MassFixed, %55 ], [ @arkStep_NlsFPFunction_MassIdent, %47 ], [ @arkStep_NlsResidual_MassIdent, %21 ], [ @arkStep_NlsResidual_MassFixed, %29 ], [ @arkStep_NlsResidual_MassIdent_TrivialPredAutonomous, %18 ], [ @arkStep_NlsResidual_MassFixed_TrivialPredAutonomous, %26 ], [ @arkStep_NlsResidual_MassTDep, %11 ], [ @arkStep_NlsFPFunction_MassIdent_TrivialPredAutonomous, %44 ], [ @arkStep_NlsFPFunction_MassFixed_TrivialPredAutonomous, %52 ], [ @arkStep_NlsFPFunction_MassTDep, %36 ]
  %59 = getelementptr inbounds nuw i8, ptr %.sink, i64 128
  %60 = load ptr, ptr %59, align 8, !tbaa !16
  %61 = call i32 @SUNNonlinSolSetSysFn(ptr noundef %60, ptr noundef nonnull %arkStep_NlsFPFunction_MassTDep.sink) #5
  %.not16 = icmp eq i32 %61, 0
  br i1 %.not16, label %63, label %62

62:                                               ; preds = %58
  call void (ptr, i32, i32, ptr, ptr, ptr, ...) @arkProcessError(ptr noundef %0, i32 noundef -22, i32 noundef 233, ptr noundef nonnull @__func__.arkStep_SetNlsSysFn, ptr noundef nonnull @.str, ptr noundef nonnull @.str.8) #5
  br label %63

63:                                               ; preds = %58, %1, %62, %57, %56, %30
  %.08 = phi i32 [ -22, %62 ], [ -22, %30 ], [ -22, %56 ], [ -22, %57 ], [ %3, %1 ], [ 0, %58 ]
  call void @llvm.lifetime.end.p0(i64 8, ptr nonnull %2) #5
  ret i32 %.08
}